; ModuleID = '31/1270.c'
source_filename = "31/1270.c"
target datalayout = "e-m:e-p270:32:32-p271:32:32-p272:64:64-i64:64-f80:128-n8:16:32:64-S128"
target triple = "x86_64-pc-linux-gnu"

%struct.student = type { [30 x i8], [30 x i8], i8, i32, [30 x i8], [30 x i8], %struct.student* }

@__const.creat.temp = private unnamed_addr constant [30 x i8] c"end\00\00\00\00\00\00\00\00\00\00\00\00\00\00\00\00\00\00\00\00\00\00\00\00\00\00\00", align 16
@n = common dso_local global i32 0, align 4
@p2 = common dso_local global %struct.student* null, align 8
@p1 = common dso_local global %struct.student* null, align 8
@.str = private unnamed_addr constant [3 x i8] c"%s\00", align 1
@.str.1 = private unnamed_addr constant [16 x i8] c" %s %c %d %s %s\00", align 1
@.str.2 = private unnamed_addr constant [19 x i8] c"%s %s %c %d %s %s\0A\00", align 1
@.str.3 = private unnamed_addr constant [2 x i8] c"\0A\00", align 1

; Function Attrs: noinline nounwind uwtable
define dso_local %struct.student* @creat() #0 {
  %1 = alloca %struct.student*, align 8
  %2 = alloca [30 x i8], align 16
  store %struct.student* null, %struct.student** %1, align 8
  %3 = bitcast [30 x i8]* %2 to i8*
  call void @llvm.memcpy.p0i8.p0i8.i64(i8* align 16 %3, i8* align 16 getelementptr inbounds ([30 x i8], [30 x i8]* @__const.creat.temp, i32 0, i32 0), i64 30, i1 false)
  store i32 0, i32* @n, align 4
  %4 = call noalias i8* @malloc(i64 100) #5
  %5 = bitcast i8* %4 to %struct.student*
  store %struct.student* %5, %struct.student** @p2, align 8
  store %struct.student* %5, %struct.student** @p1, align 8
  %6 = load %struct.student*, %struct.student** @p1, align 8
  %7 = getelementptr inbounds %struct.student, %struct.student* %6, i32 0, i32 0
  %8 = getelementptr inbounds [30 x i8], [30 x i8]* %7, i64 0, i64 0
  %9 = call i32 (i8*, ...) @__isoc99_scanf(i8* getelementptr inbounds ([3 x i8], [3 x i8]* @.str, i64 0, i64 0), i8* %8)
  br label %10

10:                                               ; preds = %42, %0
  %11 = load %struct.student*, %struct.student** @p1, align 8
  %12 = getelementptr inbounds %struct.student, %struct.student* %11, i32 0, i32 0
  %13 = getelementptr inbounds [30 x i8], [30 x i8]* %12, i64 0, i64 0
  %14 = getelementptr inbounds [30 x i8], [30 x i8]* %2, i64 0, i64 0
  %15 = call i32 @strcmp(i8* %13, i8* %14) #6
  %16 = icmp ne i32 %15, 0
  br i1 %16, label %17, label %50

17:                                               ; preds = %10
  %18 = load %struct.student*, %struct.student** @p1, align 8
  %19 = getelementptr inbounds %struct.student, %struct.student* %18, i32 0, i32 1
  %20 = getelementptr inbounds [30 x i8], [30 x i8]* %19, i64 0, i64 0
  %21 = load %struct.student*, %struct.student** @p1, align 8
  %22 = getelementptr inbounds %struct.student, %struct.student* %21, i32 0, i32 2
  %23 = load %struct.student*, %struct.student** @p1, align 8
  %24 = getelementptr inbounds %struct.student, %struct.student* %23, i32 0, i32 3
  %25 = load %struct.student*, %struct.student** @p1, align 8
  %26 = getelementptr inbounds %struct.student, %struct.student* %25, i32 0, i32 4
  %27 = getelementptr inbounds [30 x i8], [30 x i8]* %26, i64 0, i64 0
  %28 = load %struct.student*, %struct.student** @p1, align 8
  %29 = getelementptr inbounds %struct.student, %struct.student* %28, i32 0, i32 5
  %30 = getelementptr inbounds [30 x i8], [30 x i8]* %29, i64 0, i64 0
  %31 = call i32 (i8*, ...) @__isoc99_scanf(i8* getelementptr inbounds ([16 x i8], [16 x i8]* @.str.1, i64 0, i64 0), i8* %20, i8* %22, i32* %24, i8* %27, i8* %30)
  %32 = load i32, i32* @n, align 4
  %33 = add nsw i32 %32, 1
  store i32 %33, i32* @n, align 4
  %34 = load i32, i32* @n, align 4
  %35 = icmp eq i32 %34, 1
  br i1 %35, label %36, label %38

36:                                               ; preds = %17
  %37 = load %struct.student*, %struct.student** @p1, align 8
  store %struct.student* %37, %struct.student** %1, align 8
  br label %42

38:                                               ; preds = %17
  %39 = load %struct.student*, %struct.student** @p1, align 8
  %40 = load %struct.student*, %struct.student** @p2, align 8
  %41 = getelementptr inbounds %struct.student, %struct.student* %40, i32 0, i32 6
  store %struct.student* %39, %struct.student** %41, align 8
  br label %42

42:                                               ; preds = %38, %36
  %43 = load %struct.student*, %struct.student** @p1, align 8
  store %struct.student* %43, %struct.student** @p2, align 8
  %44 = call noalias i8* @malloc(i64 100) #5
  %45 = bitcast i8* %44 to %struct.student*
  store %struct.student* %45, %struct.student** @p1, align 8
  %46 = load %struct.student*, %struct.student** @p1, align 8
  %47 = getelementptr inbounds %struct.student, %struct.student* %46, i32 0, i32 0
  %48 = getelementptr inbounds [30 x i8], [30 x i8]* %47, i64 0, i64 0
  %49 = call i32 (i8*, ...) @__isoc99_scanf(i8* getelementptr inbounds ([3 x i8], [3 x i8]* @.str, i64 0, i64 0), i8* %48)
  br label %10

50:                                               ; preds = %10
  %51 = load %struct.student*, %struct.student** @p2, align 8
  %52 = getelementptr inbounds %struct.student, %struct.student* %51, i32 0, i32 6
  store %struct.student* null, %struct.student** %52, align 8
  %53 = load %struct.student*, %struct.student** %1, align 8
  ret %struct.student* %53
}

; Function Attrs: argmemonly nounwind willreturn
declare void @llvm.memcpy.p0i8.p0i8.i64(i8* noalias nocapture writeonly, i8* noalias nocapture readonly, i64, i1 immarg) #1

; Function Attrs: nounwind
declare dso_local noalias i8* @malloc(i64) #2

declare dso_local i32 @__isoc99_scanf(i8*, ...) #3

; Function Attrs: nounwind readonly
declare dso_local i32 @strcmp(i8*, i8*) #4

; Function Attrs: noinline nounwind uwtable
define dso_local %struct.student* @change(%struct.student* %0) #0 {
  %2 = alloca %struct.student*, align 8
  %3 = alloca %struct.student*, align 8
  %4 = alloca %struct.student*, align 8
  store %struct.student* %0, %struct.student** %2, align 8
  store %struct.student* null, %struct.student** %4, align 8
  br label %5

5:                                                ; preds = %31, %1
  store %struct.student* null, %struct.student** @p2, align 8
  %6 = load %struct.student*, %struct.student** %2, align 8
  store %struct.student* %6, %struct.student** @p1, align 8
  br label %7

7:                                                ; preds = %12, %5
  %8 = load %struct.student*, %struct.student** @p1, align 8
  %9 = getelementptr inbounds %struct.student, %struct.student* %8, i32 0, i32 6
  %10 = load %struct.student*, %struct.student** %9, align 8
  %11 = icmp ne %struct.student* %10, null
  br i1 %11, label %12, label %17

12:                                               ; preds = %7
  %13 = load %struct.student*, %struct.student** @p1, align 8
  store %struct.student* %13, %struct.student** @p2, align 8
  %14 = load %struct.student*, %struct.student** @p1, align 8
  %15 = getelementptr inbounds %struct.student, %struct.student* %14, i32 0, i32 6
  %16 = load %struct.student*, %struct.student** %15, align 8
  store %struct.student* %16, %struct.student** @p1, align 8
  br label %7

17:                                               ; preds = %7
  %18 = load %struct.student*, %struct.student** %4, align 8
  %19 = icmp eq %struct.student* %18, null
  br i1 %19, label %20, label %25

20:                                               ; preds = %17
  %21 = load %struct.student*, %struct.student** @p1, align 8
  store %struct.student* %21, %struct.student** %4, align 8
  %22 = load %struct.student*, %struct.student** @p2, align 8
  %23 = load %struct.student*, %struct.student** %4, align 8
  %24 = getelementptr inbounds %struct.student, %struct.student* %23, i32 0, i32 6
  store %struct.student* %22, %struct.student** %24, align 8
  store %struct.student* %22, %struct.student** %3, align 8
  br label %25

25:                                               ; preds = %20, %17
  %26 = load %struct.student*, %struct.student** @p2, align 8
  %27 = load %struct.student*, %struct.student** %3, align 8
  %28 = getelementptr inbounds %struct.student, %struct.student* %27, i32 0, i32 6
  store %struct.student* %26, %struct.student** %28, align 8
  store %struct.student* %26, %struct.student** %3, align 8
  %29 = load %struct.student*, %struct.student** @p2, align 8
  %30 = getelementptr inbounds %struct.student, %struct.student* %29, i32 0, i32 6
  store %struct.student* null, %struct.student** %30, align 8
  br label %31

31:                                               ; preds = %25
  %32 = load %struct.student*, %struct.student** %2, align 8
  %33 = getelementptr inbounds %struct.student, %struct.student* %32, i32 0, i32 6
  %34 = load %struct.student*, %struct.student** %33, align 8
  %35 = icmp ne %struct.student* %34, null
  br i1 %35, label %5, label %36

36:                                               ; preds = %31
  %37 = load %struct.student*, %struct.student** %4, align 8
  ret %struct.student* %37
}

; Function Attrs: noinline nounwind uwtable
define dso_local void @print(%struct.student* %0) #0 {
  %2 = alloca %struct.student*, align 8
  %3 = alloca %struct.student*, align 8
  store %struct.student* %0, %struct.student** %2, align 8
  %4 = load %struct.student*, %struct.student** %2, align 8
  store %struct.student* %4, %struct.student** %3, align 8
  br label %5

5:                                                ; preds = %8, %1
  %6 = load %struct.student*, %struct.student** %3, align 8
  %7 = icmp ne %struct.student* %6, null
  br i1 %7, label %8, label %32

8:                                                ; preds = %5
  %9 = load %struct.student*, %struct.student** %3, align 8
  %10 = getelementptr inbounds %struct.student, %struct.student* %9, i32 0, i32 0
  %11 = getelementptr inbounds [30 x i8], [30 x i8]* %10, i64 0, i64 0
  %12 = load %struct.student*, %struct.student** %3, align 8
  %13 = getelementptr inbounds %struct.student, %struct.student* %12, i32 0, i32 1
  %14 = getelementptr inbounds [30 x i8], [30 x i8]* %13, i64 0, i64 0
  %15 = load %struct.student*, %struct.student** %3, align 8
  %16 = getelementptr inbounds %struct.student, %struct.student* %15, i32 0, i32 2
  %17 = load i8, i8* %16, align 4
  %18 = sext i8 %17 to i32
  %19 = load %struct.student*, %struct.student** %3, align 8
  %20 = getelementptr inbounds %struct.student, %struct.student* %19, i32 0, i32 3
  %21 = load i32, i32* %20, align 8
  %22 = load %struct.student*, %struct.student** %3, align 8
  %23 = getelementptr inbounds %struct.student, %struct.student* %22, i32 0, i32 4
  %24 = getelementptr inbounds [30 x i8], [30 x i8]* %23, i64 0, i64 0
  %25 = load %struct.student*, %struct.student** %3, align 8
  %26 = getelementptr inbounds %struct.student, %struct.student* %25, i32 0, i32 5
  %27 = getelementptr inbounds [30 x i8], [30 x i8]* %26, i64 0, i64 0
  %28 = call i32 (i8*, ...) @printf(i8* getelementptr inbounds ([19 x i8], [19 x i8]* @.str.2, i64 0, i64 0), i8* %11, i8* %14, i32 %18, i32 %21, i8* %24, i8* %27)
  %29 = load %struct.student*, %struct.student** %3, align 8
  %30 = getelementptr inbounds %struct.student, %struct.student* %29, i32 0, i32 6
  %31 = load %struct.student*, %struct.student** %30, align 8
  store %struct.student* %31, %struct.student** %3, align 8
  br label %5

32:                                               ; preds = %5
  %33 = call i32 (i8*, ...) @printf(i8* getelementptr inbounds ([2 x i8], [2 x i8]* @.str.3, i64 0, i64 0))
  ret void
}

declare dso_local i32 @printf(i8*, ...) #3

; Function Attrs: noinline nounwind uwtable
define dso_local i32 @main() #0 {
  %1 = alloca i32, align 4
  %2 = alloca %struct.student*, align 8
  store i32 0, i32* %1, align 4
  %3 = call %struct.student* @creat()
  store %struct.student* %3, %struct.student** %2, align 8
  %4 = load %struct.student*, %struct.student** %2, align 8
  %5 = call %struct.student* @change(%struct.student* %4)
  store %struct.student* %5, %struct.student** %2, align 8
  %6 = load %struct.student*, %struct.student** %2, align 8
  call void @print(%struct.student* %6)
  ret i32 0
}


!llvm.module.flags = !{!0}
!llvm.ident = !{!1}

!0 = !{i32 1, !"wchar_size", i32 4}
!1 = !{!"clang version 10.0.0-4ubuntu1 "}
